; Function Attrs: nounwind uwtable
define dso_local range(i32 -1, 1) i32 @unpack_step_id(ptr noundef writeonly captures(none) initializes((0, 8)) %0, ptr noundef %1, i16 noundef zeroext %2) local_unnamed_addr #0 {
  %4 = tail call ptr @slurm_xcalloc(i64 noundef 1, i64 noundef 24, i1 noundef zeroext true, i1 noundef zeroext false, ptr noundef nonnull @.str.2, i32 noundef 14360, ptr noundef nonnull @__func__.unpack_step_id) #7
  store ptr %4, ptr %0, align 8
  %5 = tail call i32 @unpack_step_id_members(ptr noundef %4, ptr noundef %1, i16 noundef zeroext %2)
  %6 = icmp eq i32 %5, 0
  br i1 %6, label %8, label %7

7:                                                ; preds = %3
  tail call void @slurm_free_step_id(ptr noundef %4) #7
  store ptr null, ptr %0, align 8
  br label %8

8:                                                ; preds = %3, %7
  %.0 = phi i32 [ -1, %7 ], [ 0, %3 ]
  ret i32 %.0
}